; Function Attrs: nounwind uwtable
define dso_local void @index_close(ptr noundef %0, i32 noundef %1) local_unnamed_addr #0 {
  %3 = alloca %struct.LockRelId, align 8
  call void @llvm.lifetime.start.p0(i64 8, ptr nonnull %3) #7
  %4 = getelementptr inbounds nuw i8, ptr %0, i64 76
  %5 = load i64, ptr %4, align 4
  store i64 %5, ptr %3, align 8
  tail call void @RelationClose(ptr noundef %0) #7
  %.not = icmp eq i32 %1, 0
  br i1 %.not, label %7, label %6

6:                                                ; preds = %2
  call void @UnlockRelationId(ptr noundef nonnull %3, i32 noundef %1) #7
  br label %7

7:                                                ; preds = %6, %2
  call void @llvm.lifetime.end.p0(i64 8, ptr nonnull %3) #7
  ret void
}